; Function Attrs: mustprogress nounwind uwtable
define dso_local noundef i32 @_ZNK4llvm3pdb26DbiModuleDescriptorBuilder25calculateC13DebugInfoSizeEv(ptr noundef nonnull readonly align 8 captures(none) dereferenceable(256) %0) local_unnamed_addr #0 align 2 {
  %2 = getelementptr inbounds nuw i8, ptr %0, i64 168
  %3 = load ptr, ptr %2, align 8
  %4 = getelementptr inbounds nuw i8, ptr %0, i64 176
  %5 = load ptr, ptr %4, align 8
  %.not8 = icmp eq ptr %3, %5
  br i1 %.not8, label %._crit_edge, label %.lr.ph

.lr.ph:                                           ; preds = %1, %.lr.ph
  %.010 = phi i32 [ %7, %.lr.ph ], [ 0, %1 ]
  %.sroa.05.09 = phi ptr [ %8, %.lr.ph ], [ %3, %1 ]
  %6 = tail call noundef i32 @_ZNK4llvm8codeview28DebugSubsectionRecordBuilder25calculateSerializedLengthEv(ptr noundef nonnull align 8 dereferenceable(72) %.sroa.05.09) #16
  %7 = add i32 %6, %.010
  %8 = getelementptr inbounds nuw i8, ptr %.sroa.05.09, i64 72
  %.not = icmp eq ptr %8, %5
  br i1 %.not, label %._crit_edge, label %.lr.ph

._crit_edge:                                      ; preds = %.lr.ph, %1
  %.0.lcssa = phi i32 [ 0, %1 ], [ %7, %.lr.ph ]
  ret i32 %.0.lcssa
}